target datalayout = "e-m:e-p270:32:32-p271:32:32-p272:64:64-i64:64-i128:128-f80:128-n8:16:32:64-S128"
target triple = "x86_64-unknown-linux-gnu"

@_ZN4llvhL13firstByteMarkE = internal constant [7 x i8] c"\00\00\C0\E0\F0\F8\FC", align 1

; Function Attrs: mustprogress nounwind uwtable
define hidden noundef i32 @_ZN4llvh18ConvertUTF16toUTF8EPPKtS1_PPhS3_NS_15ConversionFlagsE(ptr noundef %sourceStart, ptr noundef %sourceEnd, ptr noundef %targetStart, ptr noundef %targetEnd, i32 noundef %flags) #0 {
entry:
  %sourceStart.addr = alloca ptr, align 8
  %sourceEnd.addr = alloca ptr, align 8
  %targetStart.addr = alloca ptr, align 8
  %targetEnd.addr = alloca ptr, align 8
  %flags.addr = alloca i32, align 4
  %result = alloca i32, align 4
  %source = alloca ptr, align 8
  %target = alloca ptr, align 8
  %ch = alloca i32, align 4
  %bytesToWrite = alloca i16, align 2
  %byteMask = alloca i32, align 4
  %byteMark = alloca i32, align 4
  %oldSource = alloca ptr, align 8
  %ch2 = alloca i32, align 4
  store ptr %sourceStart, ptr %sourceStart.addr, align 8
  store ptr %sourceEnd, ptr %sourceEnd.addr, align 8
  store ptr %targetStart, ptr %targetStart.addr, align 8
  store ptr %targetEnd, ptr %targetEnd.addr, align 8
  store i32 %flags, ptr %flags.addr, align 4
  store i32 0, ptr %result, align 4
  %0 = load ptr, ptr %sourceStart.addr, align 8
  %1 = load ptr, ptr %0, align 8
  store ptr %1, ptr %source, align 8
  %2 = load ptr, ptr %targetStart.addr, align 8
  %3 = load ptr, ptr %2, align 8
  store ptr %3, ptr %target, align 8
  br label %while.cond

while.cond:                                       ; preds = %sw.epilog, %entry
  %4 = load ptr, ptr %source, align 8
  %5 = load ptr, ptr %sourceEnd.addr, align 8
  %cmp = icmp ult ptr %4, %5
  br i1 %cmp, label %while.body, label %while.end

while.body:                                       ; preds = %while.cond
  store i16 0, ptr %bytesToWrite, align 2
  store i32 191, ptr %byteMask, align 4
  store i32 128, ptr %byteMark, align 4
  %6 = load ptr, ptr %source, align 8
  store ptr %6, ptr %oldSource, align 8
  %7 = load ptr, ptr %source, align 8
  %incdec.ptr = getelementptr inbounds i16, ptr %7, i32 1
  store ptr %incdec.ptr, ptr %source, align 8
  %8 = load i16, ptr %7, align 2
  %conv = zext i16 %8 to i32
  store i32 %conv, ptr %ch, align 4
  %9 = load i32, ptr %ch, align 4
  %cmp1 = icmp uge i32 %9, 55296
  br i1 %cmp1, label %land.lhs.true, label %if.else20

land.lhs.true:                                    ; preds = %while.body
  %10 = load i32, ptr %ch, align 4
  %cmp2 = icmp ule i32 %10, 56319
  br i1 %cmp2, label %if.then, label %if.else20

if.then:                                          ; preds = %land.lhs.true
  %11 = load ptr, ptr %source, align 8
  %12 = load ptr, ptr %sourceEnd.addr, align 8
  %cmp3 = icmp ult ptr %11, %12
  br i1 %cmp3, label %if.then4, label %if.else17

if.then4:                                         ; preds = %if.then
  %13 = load ptr, ptr %source, align 8
  %14 = load i16, ptr %13, align 2
  %conv5 = zext i16 %14 to i32
  store i32 %conv5, ptr %ch2, align 4
  %15 = load i32, ptr %ch2, align 4
  %cmp6 = icmp uge i32 %15, 56320
  br i1 %cmp6, label %land.lhs.true7, label %if.else

land.lhs.true7:                                   ; preds = %if.then4
  %16 = load i32, ptr %ch2, align 4
  %cmp8 = icmp ule i32 %16, 57343
  br i1 %cmp8, label %if.then9, label %if.else

if.then9:                                         ; preds = %land.lhs.true7
  %17 = load i32, ptr %ch, align 4
  %sub = sub i32 %17, 55296
  %shl = shl i32 %sub, 10
  %18 = load i32, ptr %ch2, align 4
  %sub10 = sub i32 %18, 56320
  %add = add i32 %shl, %sub10
  %add11 = add i32 %add, 65536
  store i32 %add11, ptr %ch, align 4
  %19 = load ptr, ptr %source, align 8
  %incdec.ptr12 = getelementptr inbounds i16, ptr %19, i32 1
  store ptr %incdec.ptr12, ptr %source, align 8
  br label %if.end16

if.else:                                          ; preds = %land.lhs.true7, %if.then4
  %20 = load i32, ptr %flags.addr, align 4
  %cmp13 = icmp eq i32 %20, 0
  br i1 %cmp13, label %if.then14, label %if.end

if.then14:                                        ; preds = %if.else
  %21 = load ptr, ptr %source, align 8
  %incdec.ptr15 = getelementptr inbounds i16, ptr %21, i32 -1
  store ptr %incdec.ptr15, ptr %source, align 8
  store i32 3, ptr %result, align 4
  br label %while.end

if.end:                                           ; preds = %if.else
  br label %if.end16

if.end16:                                         ; preds = %if.end, %if.then9
  br label %if.end19

if.else17:                                        ; preds = %if.then
  %22 = load ptr, ptr %source, align 8
  %incdec.ptr18 = getelementptr inbounds i16, ptr %22, i32 -1
  store ptr %incdec.ptr18, ptr %source, align 8
  store i32 1, ptr %result, align 4
  br label %while.end

if.end19:                                         ; preds = %if.end16
  br label %if.end30

if.else20:                                        ; preds = %land.lhs.true, %while.body
  %23 = load i32, ptr %flags.addr, align 4
  %cmp21 = icmp eq i32 %23, 0
  br i1 %cmp21, label %if.then22, label %if.end29

if.then22:                                        ; preds = %if.else20
  %24 = load i32, ptr %ch, align 4
  %cmp23 = icmp uge i32 %24, 56320
  br i1 %cmp23, label %land.lhs.true24, label %if.end28

land.lhs.true24:                                  ; preds = %if.then22
  %25 = load i32, ptr %ch, align 4
  %cmp25 = icmp ule i32 %25, 57343
  br i1 %cmp25, label %if.then26, label %if.end28

if.then26:                                        ; preds = %land.lhs.true24
  %26 = load ptr, ptr %source, align 8
  %incdec.ptr27 = getelementptr inbounds i16, ptr %26, i32 -1
  store ptr %incdec.ptr27, ptr %source, align 8
  store i32 3, ptr %result, align 4
  br label %while.end

if.end28:                                         ; preds = %land.lhs.true24, %if.then22
  br label %if.end29

if.end29:                                         ; preds = %if.end28, %if.else20
  br label %if.end30

if.end30:                                         ; preds = %if.end29, %if.end19
  %27 = load i32, ptr %ch, align 4
  %cmp31 = icmp ult i32 %27, 128
  br i1 %cmp31, label %if.then32, label %if.else33

if.then32:                                        ; preds = %if.end30
  store i16 1, ptr %bytesToWrite, align 2
  br label %if.end46

if.else33:                                        ; preds = %if.end30
  %28 = load i32, ptr %ch, align 4
  %cmp34 = icmp ult i32 %28, 2048
  br i1 %cmp34, label %if.then35, label %if.else36

if.then35:                                        ; preds = %if.else33
  store i16 2, ptr %bytesToWrite, align 2
  br label %if.end45

if.else36:                                        ; preds = %if.else33
  %29 = load i32, ptr %ch, align 4
  %cmp37 = icmp ult i32 %29, 65536
  br i1 %cmp37, label %if.then38, label %if.else39

if.then38:                                        ; preds = %if.else36
  store i16 3, ptr %bytesToWrite, align 2
  br label %if.end44

if.else39:                                        ; preds = %if.else36
  %30 = load i32, ptr %ch, align 4
  %cmp40 = icmp ult i32 %30, 1114112
  br i1 %cmp40, label %if.then41, label %if.else42

if.then41:                                        ; preds = %if.else39
  store i16 4, ptr %bytesToWrite, align 2
  br label %if.end43

if.else42:                                        ; preds = %if.else39
  store i16 3, ptr %bytesToWrite, align 2
  store i32 65533, ptr %ch, align 4
  br label %if.end43

if.end43:                                         ; preds = %if.else42, %if.then41
  br label %if.end44

if.end44:                                         ; preds = %if.end43, %if.then38
  br label %if.end45

if.end45:                                         ; preds = %if.end44, %if.then35
  br label %if.end46

if.end46:                                         ; preds = %if.end45, %if.then32
  %31 = load i16, ptr %bytesToWrite, align 2
  %conv47 = zext i16 %31 to i32
  %32 = load ptr, ptr %target, align 8
  %idx.ext = sext i32 %conv47 to i64
  %add.ptr = getelementptr inbounds i8, ptr %32, i64 %idx.ext
  store ptr %add.ptr, ptr %target, align 8
  %33 = load ptr, ptr %target, align 8
  %34 = load ptr, ptr %targetEnd.addr, align 8
  %cmp48 = icmp ugt ptr %33, %34
  br i1 %cmp48, label %if.then49, label %if.end53

if.then49:                                        ; preds = %if.end46
  %35 = load ptr, ptr %oldSource, align 8
  store ptr %35, ptr %source, align 8
  %36 = load i16, ptr %bytesToWrite, align 2
  %conv50 = zext i16 %36 to i32
  %37 = load ptr, ptr %target, align 8
  %idx.ext51 = sext i32 %conv50 to i64
  %idx.neg = sub i64 0, %idx.ext51
  %add.ptr52 = getelementptr inbounds i8, ptr %37, i64 %idx.neg
  store ptr %add.ptr52, ptr %target, align 8
  store i32 2, ptr %result, align 4
  br label %while.end

if.end53:                                         ; preds = %if.end46
  %38 = load i16, ptr %bytesToWrite, align 2
  %conv54 = zext i16 %38 to i32
  switch i32 %conv54, label %sw.epilog [
    i32 4, label %sw.bb
    i32 3, label %sw.bb57
    i32 2, label %sw.bb63
    i32 1, label %sw.bb69
  ]

sw.bb:                                            ; preds = %if.end53
  %39 = load i32, ptr %ch, align 4
  %or = or i32 %39, 128
  %and = and i32 %or, 191
  %conv55 = trunc i32 %and to i8
  %40 = load ptr, ptr %target, align 8
  %incdec.ptr56 = getelementptr inbounds i8, ptr %40, i32 -1
  store ptr %incdec.ptr56, ptr %target, align 8
  store i8 %conv55, ptr %incdec.ptr56, align 1
  %41 = load i32, ptr %ch, align 4
  %shr = lshr i32 %41, 6
  store i32 %shr, ptr %ch, align 4
  br label %sw.bb57

sw.bb57:                                          ; preds = %sw.bb, %if.end53
  %42 = load i32, ptr %ch, align 4
  %or58 = or i32 %42, 128
  %and59 = and i32 %or58, 191
  %conv60 = trunc i32 %and59 to i8
  %43 = load ptr, ptr %target, align 8
  %incdec.ptr61 = getelementptr inbounds i8, ptr %43, i32 -1
  store ptr %incdec.ptr61, ptr %target, align 8
  store i8 %conv60, ptr %incdec.ptr61, align 1
  %44 = load i32, ptr %ch, align 4
  %shr62 = lshr i32 %44, 6
  store i32 %shr62, ptr %ch, align 4
  br label %sw.bb63

sw.bb63:                                          ; preds = %sw.bb57, %if.end53
  %45 = load i32, ptr %ch, align 4
  %or64 = or i32 %45, 128
  %and65 = and i32 %or64, 191
  %conv66 = trunc i32 %and65 to i8
  %46 = load ptr, ptr %target, align 8
  %incdec.ptr67 = getelementptr inbounds i8, ptr %46, i32 -1
  store ptr %incdec.ptr67, ptr %target, align 8
  store i8 %conv66, ptr %incdec.ptr67, align 1
  %47 = load i32, ptr %ch, align 4
  %shr68 = lshr i32 %47, 6
  store i32 %shr68, ptr %ch, align 4
  br label %sw.bb69

sw.bb69:                                          ; preds = %sw.bb63, %if.end53
  %48 = load i32, ptr %ch, align 4
  %49 = load i16, ptr %bytesToWrite, align 2
  %idxprom = zext i16 %49 to i64
  %arrayidx = getelementptr inbounds [7 x i8], ptr @_ZN4llvhL13firstByteMarkE, i64 0, i64 %idxprom
  %50 = load i8, ptr %arrayidx, align 1
  %conv70 = zext i8 %50 to i32
  %or71 = or i32 %48, %conv70
  %conv72 = trunc i32 %or71 to i8
  %51 = load ptr, ptr %target, align 8
  %incdec.ptr73 = getelementptr inbounds i8, ptr %51, i32 -1
  store ptr %incdec.ptr73, ptr %target, align 8
  store i8 %conv72, ptr %incdec.ptr73, align 1
  br label %sw.epilog

sw.epilog:                                        ; preds = %sw.bb69, %if.end53
  %52 = load i16, ptr %bytesToWrite, align 2
  %conv74 = zext i16 %52 to i32
  %53 = load ptr, ptr %target, align 8
  %idx.ext75 = sext i32 %conv74 to i64
  %add.ptr76 = getelementptr inbounds i8, ptr %53, i64 %idx.ext75
  store ptr %add.ptr76, ptr %target, align 8
  br label %while.cond, !llvm.loop !7

while.end:                                        ; preds = %if.then49, %if.then26, %if.else17, %if.then14, %while.cond
  %54 = load ptr, ptr %source, align 8
  %55 = load ptr, ptr %sourceStart.addr, align 8
  store ptr %54, ptr %55, align 8
  %56 = load ptr, ptr %target, align 8
  %57 = load ptr, ptr %targetStart.addr, align 8
  store ptr %56, ptr %57, align 8
  %58 = load i32, ptr %result, align 4
  ret i32 %58
}